; Function Attrs: nounwind uwtable
define dso_local void @gistdentryinit(ptr noundef %0, i32 noundef %1, ptr noundef initializes((0, 27)) %2, i64 noundef %3, ptr noundef %4, ptr noundef %5, i16 noundef zeroext %6, i1 noundef zeroext %7, i1 noundef zeroext %8) local_unnamed_addr #0 {
  %10 = zext i1 %7 to i8
  %11 = getelementptr inbounds nuw i8, ptr %2, i64 8
  %12 = getelementptr inbounds nuw i8, ptr %2, i64 16
  %13 = getelementptr inbounds nuw i8, ptr %2, i64 24
  %14 = getelementptr inbounds nuw i8, ptr %2, i64 26
  br i1 %8, label %38, label %15

15:                                               ; preds = %9
  store i64 %3, ptr %2, align 8
  store ptr %4, ptr %11, align 8
  store ptr %5, ptr %12, align 8
  store i16 %6, ptr %13, align 8
  store i8 %10, ptr %14, align 2
  %16 = getelementptr inbounds nuw i8, ptr %0, i64 4648
  %17 = sext i32 %1 to i64
  %18 = getelementptr inbounds [32 x %struct.FmgrInfo], ptr %16, i64 0, i64 %17
  %19 = getelementptr inbounds nuw i8, ptr %18, i64 8
  %20 = load i32, ptr %19, align 8
  %.not = icmp eq i32 %20, 0
  br i1 %.not, label %39, label %21

21:                                               ; preds = %15
  %22 = getelementptr inbounds nuw i8, ptr %0, i64 13864
  %23 = getelementptr inbounds [32 x i32], ptr %22, i64 0, i64 %17
  %24 = load i32, ptr %23, align 4
  %25 = ptrtoint ptr %2 to i64
  %26 = tail call i64 @FunctionCall1Coll(ptr noundef nonnull %18, i32 noundef %24, i64 noundef %25) #11
  %27 = inttoptr i64 %26 to ptr
  %.not39 = icmp eq ptr %2, %27
  br i1 %.not39, label %39, label %28

28:                                               ; preds = %21
  %29 = load i64, ptr %27, align 8
  store i64 %29, ptr %2, align 8
  %30 = getelementptr inbounds nuw i8, ptr %27, i64 8
  %31 = load ptr, ptr %30, align 8
  store ptr %31, ptr %11, align 8
  %32 = getelementptr inbounds nuw i8, ptr %27, i64 16
  %33 = load ptr, ptr %32, align 8
  store ptr %33, ptr %12, align 8
  %34 = getelementptr inbounds nuw i8, ptr %27, i64 24
  %35 = load i16, ptr %34, align 8
  store i16 %35, ptr %13, align 8
  %36 = getelementptr inbounds nuw i8, ptr %27, i64 26
  %37 = load i8, ptr %36, align 2, !range !12, !noundef !13
  br label %.sink.split

38:                                               ; preds = %9
  store i64 0, ptr %2, align 8
  store ptr %4, ptr %11, align 8
  store ptr %5, ptr %12, align 8
  store i16 %6, ptr %13, align 8
  br label %.sink.split

.sink.split:                                      ; preds = %38, %28
  %.sink = phi i8 [ %37, %28 ], [ %10, %38 ]
  store i8 %.sink, ptr %14, align 2
  br label %39

39:                                               ; preds = %.sink.split, %15, %21
  ret void
}